---
triple:          'arm64-apple-darwin'
binary-path:     './build/open_window'
relocations:
  - { offsetInCU: 0x5A6A, offset: 0x5A6A, size: 0x8, addend: 0x0, symName: __ZNSt3__122__make_exception_guardB7v160006INS_6vectorI5LightNS_9allocatorIS2_EEE16__destroy_vectorEEENS_28__exception_guard_exceptionsIT_EES8_, symObjAddr: 0x4B8, symBinAddr: 0x100002548, symSize: 0x40 }
  - { offsetInCU: 0x5A9F, offset: 0x5A9F, size: 0x8, addend: 0x0, symName: __ZNSt3__119__debug_db_insert_cB7v160006INS_6vectorI5LightNS_9allocatorIS2_EEEEEEvPT_, symObjAddr: 0x52C, symBinAddr: 0x1000025BC, symSize: 0x10 }
  - { offsetInCU: 0x5AD0, offset: 0x5AD0, size: 0x8, addend: 0x0, symName: __ZNSt3__119__allocate_at_leastB7v160006INS_9allocatorI5LightEEEENS_19__allocation_resultINS_16allocator_traitsIT_E7pointerEEERS6_m, symObjAddr: 0x8AC, symBinAddr: 0x10000293C, symSize: 0x40 }
  - { offsetInCU: 0x5B13, offset: 0x5B13, size: 0x8, addend: 0x0, symName: __ZNSt3__13minB7v160006ImEERKT_S3_S3_, symObjAddr: 0xA04, symBinAddr: 0x100002A94, symSize: 0x2C }
  - { offsetInCU: 0x5D57, offset: 0x5D57, size: 0x8, addend: 0x0, symName: __ZNSt3__13minB7v160006ImNS_6__lessImmEEEERKT_S5_S5_T0_, symObjAddr: 0xA68, symBinAddr: 0x100002AF8, symSize: 0x54 }
  - { offsetInCU: 0x5DEC, offset: 0x5DEC, size: 0x8, addend: 0x0, symName: __ZNSt3__120__throw_length_errorB7v160006EPKc, symObjAddr: 0xB10, symBinAddr: 0x100002BA0, symSize: 0x64 }
  - { offsetInCU: 0x5E14, offset: 0x5E14, size: 0x8, addend: 0x0, symName: __ZNSt3__130__libcpp_is_constant_evaluatedB7v160006Ev, symObjAddr: 0xCB4, symBinAddr: 0x100002D44, symSize: 0xC }
  - { offsetInCU: 0x5E31, offset: 0x5E31, size: 0x8, addend: 0x0, symName: __ZNSt3__117__libcpp_allocateB7v160006Emm, symObjAddr: 0xCC0, symBinAddr: 0x100002D50, symSize: 0x28 }
  - { offsetInCU: 0x5E6E, offset: 0x5E6E, size: 0x8, addend: 0x0, symName: __ZNSt3__121__libcpp_operator_newB7v160006IJmEEEPvDpT_, symObjAddr: 0xCE8, symBinAddr: 0x100002D78, symSize: 0x24 }
  - { offsetInCU: 0x5EA7, offset: 0x5EA7, size: 0x8, addend: 0x0, symName: __ZNSt3__112__to_addressB7v160006I5LightEEPT_S3_, symObjAddr: 0xE04, symBinAddr: 0x100002E94, symSize: 0x14 }
  - { offsetInCU: 0x5EDC, offset: 0x5EDC, size: 0x8, addend: 0x0, symName: __ZNSt3__130__uninitialized_allocator_copyB7v160006INS_9allocatorI5LightEEPS2_S4_S4_EET2_RT_T0_T1_S5_, symObjAddr: 0xEB4, symBinAddr: 0x100002F44, symSize: 0xFC }
  - { offsetInCU: 0x5F7A, offset: 0x5F7A, size: 0x8, addend: 0x0, symName: __ZNSt3__122__make_exception_guardB7v160006INS_29_AllocatorDestroyRangeReverseINS_9allocatorI5LightEEPS3_EEEENS_28__exception_guard_exceptionsIT_EES8_, symObjAddr: 0x1028, symBinAddr: 0x1000030B8, symSize: 0x4C }
  - { offsetInCU: 0x5FB0, offset: 0x5FB0, size: 0x8, addend: 0x0, symName: __ZNSt3__119__allocator_destroyB7v160006INS_9allocatorI5LightEENS_16reverse_iteratorIPS2_EES6_EEvRT_T0_T1_, symObjAddr: 0x12B0, symBinAddr: 0x100003340, symSize: 0x70 }
  - { offsetInCU: 0x6013, offset: 0x6013, size: 0x8, addend: 0x0, symName: __ZNSt3__1neB7v160006IP5LightS2_EEbRKNS_16reverse_iteratorIT_EERKNS3_IT0_EE, symObjAddr: 0x1354, symBinAddr: 0x1000033E4, symSize: 0x48 }
  - { offsetInCU: 0x605F, offset: 0x605F, size: 0x8, addend: 0x0, symName: __ZNSt3__112__to_addressB7v160006INS_16reverse_iteratorIP5LightEEvEENS_5decayIDTclsr19__to_address_helperIT_EE6__callclsr3stdE7declvalIRKS6_EEEEE4typeES8_, symObjAddr: 0x13C8, symBinAddr: 0x100003458, symSize: 0x24 }
  - { offsetInCU: 0x60BE, offset: 0x60BE, size: 0x8, addend: 0x0, symName: __ZNSt3__118__debug_db_erase_cB7v160006INS_6vectorI5LightNS_9allocatorIS2_EEEEEEvPT_, symObjAddr: 0x16D0, symBinAddr: 0x100003760, symSize: 0x10 }
  - { offsetInCU: 0x60EF, offset: 0x60EF, size: 0x8, addend: 0x0, symName: __ZNSt3__119__libcpp_deallocateB7v160006EPvmm, symObjAddr: 0x1850, symBinAddr: 0x1000038E0, symSize: 0x30 }
  - { offsetInCU: 0x6137, offset: 0x6137, size: 0x8, addend: 0x0, symName: __ZNSt3__127__do_deallocate_handle_sizeB7v160006IJEEEvPvmDpT_, symObjAddr: 0x1880, symBinAddr: 0x100003910, symSize: 0x28 }
  - { offsetInCU: 0x6175, offset: 0x6175, size: 0x8, addend: 0x0, symName: __ZNSt3__124__libcpp_operator_deleteB7v160006IJPvEEEvDpT_, symObjAddr: 0x18A8, symBinAddr: 0x100003938, symSize: 0x24 }
  - { offsetInCU: 0x61AA, offset: 0x61AA, size: 0x8, addend: 0x0, symName: __ZNSt3__122__make_exception_guardB7v160006INS_6vectorINS_10shared_ptrI6ObjectEENS_9allocatorIS4_EEE16__destroy_vectorEEENS_28__exception_guard_exceptionsIT_EESA_, symObjAddr: 0x1A5C, symBinAddr: 0x100003AEC, symSize: 0x40 }
  - { offsetInCU: 0x61DF, offset: 0x61DF, size: 0x8, addend: 0x0, symName: __ZNSt3__119__debug_db_insert_cB7v160006INS_6vectorINS_10shared_ptrI6ObjectEENS_9allocatorIS4_EEEEEEvPT_, symObjAddr: 0x1AD0, symBinAddr: 0x100003B60, symSize: 0x10 }
  - { offsetInCU: 0x6210, offset: 0x6210, size: 0x8, addend: 0x0, symName: __ZNSt3__119__allocate_at_leastB7v160006INS_9allocatorINS_10shared_ptrI6ObjectEEEEEENS_19__allocation_resultINS_16allocator_traitsIT_E7pointerEEERS8_m, symObjAddr: 0x1E48, symBinAddr: 0x100003ED8, symSize: 0x40 }
  - { offsetInCU: 0x6253, offset: 0x6253, size: 0x8, addend: 0x0, symName: __ZNSt3__112__to_addressB7v160006INS_10shared_ptrI6ObjectEEEEPT_S5_, symObjAddr: 0x2138, symBinAddr: 0x1000041C8, symSize: 0x14 }
  - { offsetInCU: 0x6288, offset: 0x6288, size: 0x8, addend: 0x0, symName: __ZNSt3__130__uninitialized_allocator_copyB7v160006INS_9allocatorINS_10shared_ptrI6ObjectEEEEPS4_S6_S6_EET2_RT_T0_T1_S7_, symObjAddr: 0x21E8, symBinAddr: 0x100004278, symSize: 0xFC }
  - { offsetInCU: 0x6326, offset: 0x6326, size: 0x8, addend: 0x0, symName: __ZNSt3__122__make_exception_guardB7v160006INS_29_AllocatorDestroyRangeReverseINS_9allocatorINS_10shared_ptrI6ObjectEEEEPS5_EEEENS_28__exception_guard_exceptionsIT_EESA_, symObjAddr: 0x2354, symBinAddr: 0x1000043E4, symSize: 0x4C }
  - { offsetInCU: 0x635C, offset: 0x635C, size: 0x8, addend: 0x0, symName: __ZNSt3__134__libcpp_atomic_refcount_incrementB7v160006IlEET_RS1_, symObjAddr: 0x261C, symBinAddr: 0x1000046AC, symSize: 0x30 }
  - { offsetInCU: 0x6391, offset: 0x6391, size: 0x8, addend: 0x0, symName: __ZNSt3__119__allocator_destroyB7v160006INS_9allocatorINS_10shared_ptrI6ObjectEEEENS_16reverse_iteratorIPS4_EES8_EEvRT_T0_T1_, symObjAddr: 0x26FC, symBinAddr: 0x10000478C, symSize: 0x70 }
  - { offsetInCU: 0x63F4, offset: 0x63F4, size: 0x8, addend: 0x0, symName: __ZNSt3__1neB7v160006IPNS_10shared_ptrI6ObjectEES4_EEbRKNS_16reverse_iteratorIT_EERKNS5_IT0_EE, symObjAddr: 0x27A0, symBinAddr: 0x100004830, symSize: 0x48 }
  - { offsetInCU: 0x6440, offset: 0x6440, size: 0x8, addend: 0x0, symName: __ZNSt3__112__to_addressB7v160006INS_16reverse_iteratorIPNS_10shared_ptrI6ObjectEEEEvEENS_5decayIDTclsr19__to_address_helperIT_EE6__callclsr3stdE7declvalIRKS8_EEEEE4typeESA_, symObjAddr: 0x2814, symBinAddr: 0x1000048A4, symSize: 0x24 }
  - { offsetInCU: 0x6476, offset: 0x6476, size: 0x8, addend: 0x0, symName: __ZNSt3__134__libcpp_atomic_refcount_decrementB7v160006IlEET_RS1_, symObjAddr: 0x29D0, symBinAddr: 0x100004A60, symSize: 0x30 }
  - { offsetInCU: 0x64D4, offset: 0x64D4, size: 0x8, addend: 0x0, symName: __ZNSt3__118__debug_db_erase_cB7v160006INS_6vectorINS_10shared_ptrI6ObjectEENS_9allocatorIS4_EEEEEEvPT_, symObjAddr: 0x2C7C, symBinAddr: 0x100004D0C, symSize: 0x10 }
  - { offsetInCU: 0x6883, offset: 0x6883, size: 0x8, addend: 0x0, symName: __ZSt28__throw_bad_array_new_lengthB7v160006v, symObjAddr: 0xC80, symBinAddr: 0x100002D10, symSize: 0x34 }
  - { offsetInCU: 0x9175, offset: 0x9175, size: 0x8, addend: 0x0, symName: _main, symObjAddr: 0x0, symBinAddr: 0x100002090, symSize: 0x198 }
  - { offsetInCU: 0x9343, offset: 0x9343, size: 0x8, addend: 0x0, symName: __ZN5SceneC1ERKS_, symObjAddr: 0x198, symBinAddr: 0x100002228, symSize: 0x34 }
  - { offsetInCU: 0x9375, offset: 0x9375, size: 0x8, addend: 0x0, symName: __ZN5SceneD1Ev, symObjAddr: 0x1CC, symBinAddr: 0x10000225C, symSize: 0x2C }
  - { offsetInCU: 0x939F, offset: 0x939F, size: 0x8, addend: 0x0, symName: __ZN5SceneC2ERKS_, symObjAddr: 0x204, symBinAddr: 0x100002294, symSize: 0x90 }
  - { offsetInCU: 0x93D1, offset: 0x93D1, size: 0x8, addend: 0x0, symName: __ZNSt3__16vectorI5LightNS_9allocatorIS1_EEEC1ERKS4_, symObjAddr: 0x294, symBinAddr: 0x100002324, symSize: 0x34 }
  - { offsetInCU: 0x940A, offset: 0x940A, size: 0x8, addend: 0x0, symName: __ZNSt3__16vectorINS_10shared_ptrI6ObjectEENS_9allocatorIS3_EEEC1ERKS6_, symObjAddr: 0x2C8, symBinAddr: 0x100002358, symSize: 0x34 }
  - { offsetInCU: 0x9443, offset: 0x9443, size: 0x8, addend: 0x0, symName: __ZNSt3__16vectorI5LightNS_9allocatorIS1_EEED1B7v160006Ev, symObjAddr: 0x2FC, symBinAddr: 0x10000238C, symSize: 0x2C }
  - { offsetInCU: 0x946B, offset: 0x946B, size: 0x8, addend: 0x0, symName: __ZNSt3__16vectorI5LightNS_9allocatorIS1_EEEC2ERKS4_, symObjAddr: 0x328, symBinAddr: 0x1000023B8, symSize: 0x11C }
  - { offsetInCU: 0x94D2, offset: 0x94D2, size: 0x8, addend: 0x0, symName: __ZNSt3__116allocator_traitsINS_9allocatorI5LightEEE37select_on_container_copy_constructionB7v160006IS3_vvEES3_RKS3_, symObjAddr: 0x444, symBinAddr: 0x1000024D4, symSize: 0x10 }
  - { offsetInCU: 0x9500, offset: 0x9500, size: 0x8, addend: 0x0, symName: __ZNKSt3__16vectorI5LightNS_9allocatorIS1_EEE7__allocB7v160006Ev, symObjAddr: 0x454, symBinAddr: 0x1000024E4, symSize: 0x28 }
  - { offsetInCU: 0x952E, offset: 0x952E, size: 0x8, addend: 0x0, symName: __ZNSt3__117__compressed_pairIP5LightNS_9allocatorIS1_EEEC1B7v160006IDnS4_EEOT_OT0_, symObjAddr: 0x47C, symBinAddr: 0x10000250C, symSize: 0x3C }
  - { offsetInCU: 0x9584, offset: 0x9584, size: 0x8, addend: 0x0, symName: __ZNSt3__16vectorI5LightNS_9allocatorIS1_EEE16__destroy_vectorC1ERS4_, symObjAddr: 0x4F8, symBinAddr: 0x100002588, symSize: 0x34 }
  - { offsetInCU: 0x95BB, offset: 0x95BB, size: 0x8, addend: 0x0, symName: __ZNKSt3__16vectorI5LightNS_9allocatorIS1_EEE4sizeB7v160006Ev, symObjAddr: 0x53C, symBinAddr: 0x1000025CC, symSize: 0x28 }
  - { offsetInCU: 0x95DF, offset: 0x95DF, size: 0x8, addend: 0x0, symName: __ZNSt3__16vectorI5LightNS_9allocatorIS1_EEE11__vallocateB7v160006Em, symObjAddr: 0x564, symBinAddr: 0x1000025F4, symSize: 0xB4 }
  - { offsetInCU: 0x9621, offset: 0x9621, size: 0x8, addend: 0x0, symName: __ZNSt3__16vectorI5LightNS_9allocatorIS1_EEE18__construct_at_endIPS1_Li0EEEvT_S7_m, symObjAddr: 0x618, symBinAddr: 0x1000026A8, symSize: 0x94 }
  - { offsetInCU: 0x9692, offset: 0x9692, size: 0x8, addend: 0x0, symName: __ZNSt3__128__exception_guard_exceptionsINS_6vectorI5LightNS_9allocatorIS2_EEE16__destroy_vectorEE10__completeB7v160006Ev, symObjAddr: 0x6AC, symBinAddr: 0x10000273C, symSize: 0x1C }
  - { offsetInCU: 0x96B6, offset: 0x96B6, size: 0x8, addend: 0x0, symName: __ZNSt3__128__exception_guard_exceptionsINS_6vectorI5LightNS_9allocatorIS2_EEE16__destroy_vectorEED1B7v160006Ev, symObjAddr: 0x6C8, symBinAddr: 0x100002758, symSize: 0x2C }
  - { offsetInCU: 0x96DE, offset: 0x96DE, size: 0x8, addend: 0x0, symName: __ZNKSt3__117__compressed_pairIP5LightNS_9allocatorIS1_EEE6secondB7v160006Ev, symObjAddr: 0x6F4, symBinAddr: 0x100002784, symSize: 0x24 }
  - { offsetInCU: 0x9702, offset: 0x9702, size: 0x8, addend: 0x0, symName: __ZNKSt3__122__compressed_pair_elemINS_9allocatorI5LightEELi1ELb1EE5__getB7v160006Ev, symObjAddr: 0x718, symBinAddr: 0x1000027A8, symSize: 0x14 }
  - { offsetInCU: 0x9726, offset: 0x9726, size: 0x8, addend: 0x0, symName: __ZNSt3__117__compressed_pairIP5LightNS_9allocatorIS1_EEEC2B7v160006IDnS4_EEOT_OT0_, symObjAddr: 0x72C, symBinAddr: 0x1000027BC, symSize: 0x44 }
  - { offsetInCU: 0x977C, offset: 0x977C, size: 0x8, addend: 0x0, symName: __ZNSt3__122__compressed_pair_elemIP5LightLi0ELb0EEC2B7v160006IDnvEEOT_, symObjAddr: 0x770, symBinAddr: 0x100002800, symSize: 0x1C }
  - { offsetInCU: 0x97BC, offset: 0x97BC, size: 0x8, addend: 0x0, symName: __ZNSt3__122__compressed_pair_elemINS_9allocatorI5LightEELi1ELb1EEC2B7v160006IS3_vEEOT_, symObjAddr: 0x78C, symBinAddr: 0x10000281C, symSize: 0x18 }
  - { offsetInCU: 0x97FC, offset: 0x97FC, size: 0x8, addend: 0x0, symName: __ZNSt3__128__exception_guard_exceptionsINS_6vectorI5LightNS_9allocatorIS2_EEE16__destroy_vectorEEC1B7v160006ES6_, symObjAddr: 0x7A4, symBinAddr: 0x100002834, symSize: 0x34 }
  - { offsetInCU: 0x9832, offset: 0x9832, size: 0x8, addend: 0x0, symName: __ZNSt3__128__exception_guard_exceptionsINS_6vectorI5LightNS_9allocatorIS2_EEE16__destroy_vectorEEC2B7v160006ES6_, symObjAddr: 0x7D8, symBinAddr: 0x100002868, symSize: 0x24 }
  - { offsetInCU: 0x9868, offset: 0x9868, size: 0x8, addend: 0x0, symName: __ZNSt3__16vectorI5LightNS_9allocatorIS1_EEE16__destroy_vectorC2ERS4_, symObjAddr: 0x7FC, symBinAddr: 0x10000288C, symSize: 0x20 }
  - { offsetInCU: 0x989F, offset: 0x989F, size: 0x8, addend: 0x0, symName: __ZNKSt3__16vectorI5LightNS_9allocatorIS1_EEE8max_sizeEv, symObjAddr: 0x81C, symBinAddr: 0x1000028AC, symSize: 0x74 }
  - { offsetInCU: 0x98C5, offset: 0x98C5, size: 0x8, addend: 0x0, symName: __ZNKSt3__16vectorI5LightNS_9allocatorIS1_EEE20__throw_length_errorB7v160006Ev, symObjAddr: 0x890, symBinAddr: 0x100002920, symSize: 0x1C }
  - { offsetInCU: 0x98E9, offset: 0x98E9, size: 0x8, addend: 0x0, symName: __ZNSt3__16vectorI5LightNS_9allocatorIS1_EEE7__allocB7v160006Ev, symObjAddr: 0x8EC, symBinAddr: 0x10000297C, symSize: 0x28 }
  - { offsetInCU: 0x990D, offset: 0x990D, size: 0x8, addend: 0x0, symName: __ZNSt3__16vectorI5LightNS_9allocatorIS1_EEE9__end_capB7v160006Ev, symObjAddr: 0x914, symBinAddr: 0x1000029A4, symSize: 0x28 }
  - { offsetInCU: 0x9931, offset: 0x9931, size: 0x8, addend: 0x0, symName: __ZNKSt3__16vectorI5LightNS_9allocatorIS1_EEE14__annotate_newB7v160006Em, symObjAddr: 0x93C, symBinAddr: 0x1000029CC, symSize: 0xC8 }
  - { offsetInCU: 0x9964, offset: 0x9964, size: 0x8, addend: 0x0, symName: __ZNSt3__116allocator_traitsINS_9allocatorI5LightEEE8max_sizeB7v160006IS3_vEEmRKS3_, symObjAddr: 0xA30, symBinAddr: 0x100002AC0, symSize: 0x24 }
  - { offsetInCU: 0x9991, offset: 0x9991, size: 0x8, addend: 0x0, symName: __ZNSt3__114numeric_limitsIlE3maxB7v160006Ev, symObjAddr: 0xA54, symBinAddr: 0x100002AE4, symSize: 0x14 }
  - { offsetInCU: 0x99B8, offset: 0x99B8, size: 0x8, addend: 0x0, symName: __ZNKSt3__16__lessImmEclB7v160006ERKmS3_, symObjAddr: 0xABC, symBinAddr: 0x100002B4C, symSize: 0x34 }
  - { offsetInCU: 0x99F8, offset: 0x99F8, size: 0x8, addend: 0x0, symName: __ZNKSt3__19allocatorI5LightE8max_sizeB7v160006Ev, symObjAddr: 0xAF0, symBinAddr: 0x100002B80, symSize: 0x18 }
  - { offsetInCU: 0x9A1C, offset: 0x9A1C, size: 0x8, addend: 0x0, symName: __ZNSt3__123__libcpp_numeric_limitsIlLb1EE3maxB7v160006Ev, symObjAddr: 0xB08, symBinAddr: 0x100002B98, symSize: 0x8 }
  - { offsetInCU: 0x9A2F, offset: 0x9A2F, size: 0x8, addend: 0x0, symName: __ZNSt12length_errorC1B7v160006EPKc, symObjAddr: 0xB74, symBinAddr: 0x100002C04, symSize: 0x34 }
  - { offsetInCU: 0x9A65, offset: 0x9A65, size: 0x8, addend: 0x0, symName: __ZNSt12length_errorC2B7v160006EPKc, symObjAddr: 0xBA8, symBinAddr: 0x100002C38, symSize: 0x4C }
  - { offsetInCU: 0x9A9B, offset: 0x9A9B, size: 0x8, addend: 0x0, symName: __ZNSt3__19allocatorI5LightE8allocateB7v160006Em, symObjAddr: 0xBF4, symBinAddr: 0x100002C84, symSize: 0x8C }
  - { offsetInCU: 0x9ACD, offset: 0x9ACD, size: 0x8, addend: 0x0, symName: __ZNSt3__117__compressed_pairIP5LightNS_9allocatorIS1_EEE6secondB7v160006Ev, symObjAddr: 0xD0C, symBinAddr: 0x100002D9C, symSize: 0x24 }
  - { offsetInCU: 0x9AF1, offset: 0x9AF1, size: 0x8, addend: 0x0, symName: __ZNSt3__122__compressed_pair_elemINS_9allocatorI5LightEELi1ELb1EE5__getB7v160006Ev, symObjAddr: 0xD30, symBinAddr: 0x100002DC0, symSize: 0x14 }
  - { offsetInCU: 0x9B15, offset: 0x9B15, size: 0x8, addend: 0x0, symName: __ZNSt3__117__compressed_pairIP5LightNS_9allocatorIS1_EEE5firstB7v160006Ev, symObjAddr: 0xD44, symBinAddr: 0x100002DD4, symSize: 0x24 }
  - { offsetInCU: 0x9B39, offset: 0x9B39, size: 0x8, addend: 0x0, symName: __ZNSt3__122__compressed_pair_elemIP5LightLi0ELb0EE5__getB7v160006Ev, symObjAddr: 0xD68, symBinAddr: 0x100002DF8, symSize: 0x14 }
  - { offsetInCU: 0x9B5D, offset: 0x9B5D, size: 0x8, addend: 0x0, symName: __ZNKSt3__16vectorI5LightNS_9allocatorIS1_EEE31__annotate_contiguous_containerB7v160006EPKvS6_S6_S6_, symObjAddr: 0xD7C, symBinAddr: 0x100002E0C, symSize: 0x20 }
  - { offsetInCU: 0x9BAD, offset: 0x9BAD, size: 0x8, addend: 0x0, symName: __ZNKSt3__16vectorI5LightNS_9allocatorIS1_EEE4dataB7v160006Ev, symObjAddr: 0xD9C, symBinAddr: 0x100002E2C, symSize: 0x28 }
  - { offsetInCU: 0x9BD1, offset: 0x9BD1, size: 0x8, addend: 0x0, symName: __ZNKSt3__16vectorI5LightNS_9allocatorIS1_EEE8capacityB7v160006Ev, symObjAddr: 0xDC4, symBinAddr: 0x100002E54, symSize: 0x40 }
  - { offsetInCU: 0x9BF5, offset: 0x9BF5, size: 0x8, addend: 0x0, symName: __ZNKSt3__16vectorI5LightNS_9allocatorIS1_EEE9__end_capB7v160006Ev, symObjAddr: 0xE18, symBinAddr: 0x100002EA8, symSize: 0x28 }
  - { offsetInCU: 0x9C19, offset: 0x9C19, size: 0x8, addend: 0x0, symName: __ZNKSt3__117__compressed_pairIP5LightNS_9allocatorIS1_EEE5firstB7v160006Ev, symObjAddr: 0xE40, symBinAddr: 0x100002ED0, symSize: 0x24 }
  - { offsetInCU: 0x9C3D, offset: 0x9C3D, size: 0x8, addend: 0x0, symName: __ZNKSt3__122__compressed_pair_elemIP5LightLi0ELb0EE5__getB7v160006Ev, symObjAddr: 0xE64, symBinAddr: 0x100002EF4, symSize: 0x14 }
  - { offsetInCU: 0x9C7A, offset: 0x9C7A, size: 0x8, addend: 0x0, symName: __ZNSt3__16vectorI5LightNS_9allocatorIS1_EEE21_ConstructTransactionC1B7v160006ERS4_m, symObjAddr: 0xE78, symBinAddr: 0x100002F08, symSize: 0x3C }
  - { offsetInCU: 0x9CC0, offset: 0x9CC0, size: 0x8, addend: 0x0, symName: __ZNSt3__16vectorI5LightNS_9allocatorIS1_EEE21_ConstructTransactionD1B7v160006Ev, symObjAddr: 0xFB0, symBinAddr: 0x100003040, symSize: 0x2C }
  - { offsetInCU: 0x9CE8, offset: 0x9CE8, size: 0x8, addend: 0x0, symName: __ZNSt3__16vectorI5LightNS_9allocatorIS1_EEE21_ConstructTransactionC2B7v160006ERS4_m, symObjAddr: 0xFDC, symBinAddr: 0x10000306C, symSize: 0x4C }
  - { offsetInCU: 0x9D2E, offset: 0x9D2E, size: 0x8, addend: 0x0, symName: __ZNSt3__129_AllocatorDestroyRangeReverseINS_9allocatorI5LightEEPS2_EC1B7v160006ERS3_RS4_S7_, symObjAddr: 0x1074, symBinAddr: 0x100003104, symSize: 0x44 }
  - { offsetInCU: 0x9D83, offset: 0x9D83, size: 0x8, addend: 0x0, symName: __ZNSt3__116allocator_traitsINS_9allocatorI5LightEEE9constructB7v160006IS2_JRS2_EvEEvRS3_PT_DpOT0_, symObjAddr: 0x10B8, symBinAddr: 0x100003148, symSize: 0x34 }
  - { offsetInCU: 0x9DD9, offset: 0x9DD9, size: 0x8, addend: 0x0, symName: __ZNSt3__128__exception_guard_exceptionsINS_29_AllocatorDestroyRangeReverseINS_9allocatorI5LightEEPS3_EEE10__completeB7v160006Ev, symObjAddr: 0x10EC, symBinAddr: 0x10000317C, symSize: 0x1C }
  - { offsetInCU: 0x9DFD, offset: 0x9DFD, size: 0x8, addend: 0x0, symName: __ZNSt3__128__exception_guard_exceptionsINS_29_AllocatorDestroyRangeReverseINS_9allocatorI5LightEEPS3_EEED1B7v160006Ev, symObjAddr: 0x1108, symBinAddr: 0x100003198, symSize: 0x2C }
  - { offsetInCU: 0x9E25, offset: 0x9E25, size: 0x8, addend: 0x0, symName: __ZNSt3__128__exception_guard_exceptionsINS_29_AllocatorDestroyRangeReverseINS_9allocatorI5LightEEPS3_EEEC1B7v160006ES6_, symObjAddr: 0x1134, symBinAddr: 0x1000031C4, symSize: 0x34 }
  - { offsetInCU: 0x9E5C, offset: 0x9E5C, size: 0x8, addend: 0x0, symName: __ZNSt3__128__exception_guard_exceptionsINS_29_AllocatorDestroyRangeReverseINS_9allocatorI5LightEEPS3_EEEC2B7v160006ES6_, symObjAddr: 0x1168, symBinAddr: 0x1000031F8, symSize: 0x30 }
  - { offsetInCU: 0x9E93, offset: 0x9E93, size: 0x8, addend: 0x0, symName: __ZNSt3__129_AllocatorDestroyRangeReverseINS_9allocatorI5LightEEPS2_EC2B7v160006ERS3_RS4_S7_, symObjAddr: 0x1198, symBinAddr: 0x100003228, symSize: 0x38 }
  - { offsetInCU: 0x9EE8, offset: 0x9EE8, size: 0x8, addend: 0x0, symName: __ZNSt3__19allocatorI5LightE9constructB7v160006IS1_JRS1_EEEvPT_DpOT0_, symObjAddr: 0x11D0, symBinAddr: 0x100003260, symSize: 0x30 }
  - { offsetInCU: 0x9F3C, offset: 0x9F3C, size: 0x8, addend: 0x0, symName: __ZNSt3__128__exception_guard_exceptionsINS_29_AllocatorDestroyRangeReverseINS_9allocatorI5LightEEPS3_EEED2B7v160006Ev, symObjAddr: 0x1200, symBinAddr: 0x100003290, symSize: 0x48 }
  - { offsetInCU: 0x9F64, offset: 0x9F64, size: 0x8, addend: 0x0, symName: __ZNKSt3__129_AllocatorDestroyRangeReverseINS_9allocatorI5LightEEPS2_EclB7v160006Ev, symObjAddr: 0x1248, symBinAddr: 0x1000032D8, symSize: 0x68 }
  - { offsetInCU: 0x9F88, offset: 0x9F88, size: 0x8, addend: 0x0, symName: __ZNSt3__116reverse_iteratorIP5LightEC1B7v160006ES2_, symObjAddr: 0x1320, symBinAddr: 0x1000033B0, symSize: 0x34 }
  - { offsetInCU: 0x9FBE, offset: 0x9FBE, size: 0x8, addend: 0x0, symName: __ZNSt3__116allocator_traitsINS_9allocatorI5LightEEE7destroyB7v160006IS2_vEEvRS3_PT_, symObjAddr: 0x139C, symBinAddr: 0x10000342C, symSize: 0x2C }
  - { offsetInCU: 0x9FFA, offset: 0x9FFA, size: 0x8, addend: 0x0, symName: __ZNSt3__116reverse_iteratorIP5LightEppB7v160006Ev, symObjAddr: 0x13EC, symBinAddr: 0x10000347C, symSize: 0x20 }
  - { offsetInCU: 0xA01E, offset: 0xA01E, size: 0x8, addend: 0x0, symName: __ZNKSt3__116reverse_iteratorIP5LightE4baseB7v160006Ev, symObjAddr: 0x140C, symBinAddr: 0x10000349C, symSize: 0x18 }
  - { offsetInCU: 0xA042, offset: 0xA042, size: 0x8, addend: 0x0, symName: __ZNSt3__19allocatorI5LightE7destroyB7v160006EPS1_, symObjAddr: 0x1424, symBinAddr: 0x1000034B4, symSize: 0x14 }
  - { offsetInCU: 0xA079, offset: 0xA079, size: 0x8, addend: 0x0, symName: __ZNSt3__119__to_address_helperINS_16reverse_iteratorIP5LightEEvE6__callB7v160006ERKS4_, symObjAddr: 0x1438, symBinAddr: 0x1000034C8, symSize: 0x4C }
  - { offsetInCU: 0xA09B, offset: 0xA09B, size: 0x8, addend: 0x0, symName: __ZNKSt3__116reverse_iteratorIP5LightEptB7v160006Ev, symObjAddr: 0x1484, symBinAddr: 0x100003514, symSize: 0x24 }
  - { offsetInCU: 0xA0BF, offset: 0xA0BF, size: 0x8, addend: 0x0, symName: __ZNKSt3__116reverse_iteratorIP5LightEdeB7v160006Ev, symObjAddr: 0x14A8, symBinAddr: 0x100003538, symSize: 0x28 }
  - { offsetInCU: 0xA0F1, offset: 0xA0F1, size: 0x8, addend: 0x0, symName: __ZNSt3__116reverse_iteratorIP5LightEC2B7v160006ES2_, symObjAddr: 0x14D0, symBinAddr: 0x100003560, symSize: 0x28 }
  - { offsetInCU: 0xA127, offset: 0xA127, size: 0x8, addend: 0x0, symName: __ZNSt3__16vectorI5LightNS_9allocatorIS1_EEE21_ConstructTransactionD2B7v160006Ev, symObjAddr: 0x14F8, symBinAddr: 0x100003588, symSize: 0x20 }
  - { offsetInCU: 0xA14F, offset: 0xA14F, size: 0x8, addend: 0x0, symName: __ZNSt3__128__exception_guard_exceptionsINS_6vectorI5LightNS_9allocatorIS2_EEE16__destroy_vectorEED2B7v160006Ev, symObjAddr: 0x1518, symBinAddr: 0x1000035A8, symSize: 0x48 }
  - { offsetInCU: 0xA177, offset: 0xA177, size: 0x8, addend: 0x0, symName: __ZNSt3__16vectorI5LightNS_9allocatorIS1_EEE16__destroy_vectorclB7v160006Ev, symObjAddr: 0x1560, symBinAddr: 0x1000035F0, symSize: 0x9C }
  - { offsetInCU: 0xA19B, offset: 0xA19B, size: 0x8, addend: 0x0, symName: __ZNKSt3__16vectorI5LightNS_9allocatorIS1_EEE17__annotate_deleteB7v160006Ev, symObjAddr: 0x15FC, symBinAddr: 0x10000368C, symSize: 0xD4 }
  - { offsetInCU: 0xA1BF, offset: 0xA1BF, size: 0x8, addend: 0x0, symName: __ZNSt3__16vectorI5LightNS_9allocatorIS1_EEE7__clearB7v160006Ev, symObjAddr: 0x16E0, symBinAddr: 0x100003770, symSize: 0x28 }
  - { offsetInCU: 0xA1E3, offset: 0xA1E3, size: 0x8, addend: 0x0, symName: __ZNSt3__116allocator_traitsINS_9allocatorI5LightEEE10deallocateB7v160006ERS3_PS2_m, symObjAddr: 0x1708, symBinAddr: 0x100003798, symSize: 0x34 }
  - { offsetInCU: 0xA224, offset: 0xA224, size: 0x8, addend: 0x0, symName: __ZNSt3__16vectorI5LightNS_9allocatorIS1_EEE22__base_destruct_at_endB7v160006EPS1_, symObjAddr: 0x173C, symBinAddr: 0x1000037CC, symSize: 0xA0 }
  - { offsetInCU: 0xA266, offset: 0xA266, size: 0x8, addend: 0x0, symName: __ZNSt3__19allocatorI5LightE10deallocateB7v160006EPS1_m, symObjAddr: 0x17DC, symBinAddr: 0x10000386C, symSize: 0x74 }
  - { offsetInCU: 0xA2A6, offset: 0xA2A6, size: 0x8, addend: 0x0, symName: __ZNSt3__16vectorINS_10shared_ptrI6ObjectEENS_9allocatorIS3_EEEC2ERKS6_, symObjAddr: 0x18CC, symBinAddr: 0x10000395C, symSize: 0x11C }
  - { offsetInCU: 0xA30D, offset: 0xA30D, size: 0x8, addend: 0x0, symName: __ZNSt3__116allocator_traitsINS_9allocatorINS_10shared_ptrI6ObjectEEEEE37select_on_container_copy_constructionB7v160006IS5_vvEES5_RKS5_, symObjAddr: 0x19E8, symBinAddr: 0x100003A78, symSize: 0x10 }
  - { offsetInCU: 0xA33B, offset: 0xA33B, size: 0x8, addend: 0x0, symName: __ZNKSt3__16vectorINS_10shared_ptrI6ObjectEENS_9allocatorIS3_EEE7__allocB7v160006Ev, symObjAddr: 0x19F8, symBinAddr: 0x100003A88, symSize: 0x28 }
  - { offsetInCU: 0xA364, offset: 0xA364, size: 0x8, addend: 0x0, symName: __ZNSt3__117__compressed_pairIPNS_10shared_ptrI6ObjectEENS_9allocatorIS3_EEEC1B7v160006IDnS6_EEOT_OT0_, symObjAddr: 0x1A20, symBinAddr: 0x100003AB0, symSize: 0x3C }
  - { offsetInCU: 0xA3BA, offset: 0xA3BA, size: 0x8, addend: 0x0, symName: __ZNSt3__16vectorINS_10shared_ptrI6ObjectEENS_9allocatorIS3_EEE16__destroy_vectorC1ERS6_, symObjAddr: 0x1A9C, symBinAddr: 0x100003B2C, symSize: 0x34 }
  - { offsetInCU: 0xA3F1, offset: 0xA3F1, size: 0x8, addend: 0x0, symName: __ZNKSt3__16vectorINS_10shared_ptrI6ObjectEENS_9allocatorIS3_EEE4sizeB7v160006Ev, symObjAddr: 0x1AE0, symBinAddr: 0x100003B70, symSize: 0x28 }
  - { offsetInCU: 0xA415, offset: 0xA415, size: 0x8, addend: 0x0, symName: __ZNSt3__16vectorINS_10shared_ptrI6ObjectEENS_9allocatorIS3_EEE11__vallocateB7v160006Em, symObjAddr: 0x1B08, symBinAddr: 0x100003B98, symSize: 0xAC }
  - { offsetInCU: 0xA457, offset: 0xA457, size: 0x8, addend: 0x0, symName: __ZNSt3__16vectorINS_10shared_ptrI6ObjectEENS_9allocatorIS3_EEE18__construct_at_endIPS3_Li0EEEvT_S9_m, symObjAddr: 0x1BB4, symBinAddr: 0x100003C44, symSize: 0x94 }
  - { offsetInCU: 0xA4C8, offset: 0xA4C8, size: 0x8, addend: 0x0, symName: __ZNSt3__128__exception_guard_exceptionsINS_6vectorINS_10shared_ptrI6ObjectEENS_9allocatorIS4_EEE16__destroy_vectorEE10__completeB7v160006Ev, symObjAddr: 0x1C48, symBinAddr: 0x100003CD8, symSize: 0x1C }
  - { offsetInCU: 0xA4EC, offset: 0xA4EC, size: 0x8, addend: 0x0, symName: __ZNSt3__128__exception_guard_exceptionsINS_6vectorINS_10shared_ptrI6ObjectEENS_9allocatorIS4_EEE16__destroy_vectorEED1B7v160006Ev, symObjAddr: 0x1C64, symBinAddr: 0x100003CF4, symSize: 0x2C }
  - { offsetInCU: 0xA514, offset: 0xA514, size: 0x8, addend: 0x0, symName: __ZNKSt3__117__compressed_pairIPNS_10shared_ptrI6ObjectEENS_9allocatorIS3_EEE6secondB7v160006Ev, symObjAddr: 0x1C90, symBinAddr: 0x100003D20, symSize: 0x24 }
  - { offsetInCU: 0xA538, offset: 0xA538, size: 0x8, addend: 0x0, symName: __ZNKSt3__122__compressed_pair_elemINS_9allocatorINS_10shared_ptrI6ObjectEEEELi1ELb1EE5__getB7v160006Ev, symObjAddr: 0x1CB4, symBinAddr: 0x100003D44, symSize: 0x14 }
  - { offsetInCU: 0xA55C, offset: 0xA55C, size: 0x8, addend: 0x0, symName: __ZNSt3__117__compressed_pairIPNS_10shared_ptrI6ObjectEENS_9allocatorIS3_EEEC2B7v160006IDnS6_EEOT_OT0_, symObjAddr: 0x1CC8, symBinAddr: 0x100003D58, symSize: 0x44 }
  - { offsetInCU: 0xA5B2, offset: 0xA5B2, size: 0x8, addend: 0x0, symName: __ZNSt3__122__compressed_pair_elemIPNS_10shared_ptrI6ObjectEELi0ELb0EEC2B7v160006IDnvEEOT_, symObjAddr: 0x1D0C, symBinAddr: 0x100003D9C, symSize: 0x1C }
  - { offsetInCU: 0xA5F2, offset: 0xA5F2, size: 0x8, addend: 0x0, symName: __ZNSt3__122__compressed_pair_elemINS_9allocatorINS_10shared_ptrI6ObjectEEEELi1ELb1EEC2B7v160006IS5_vEEOT_, symObjAddr: 0x1D28, symBinAddr: 0x100003DB8, symSize: 0x18 }
  - { offsetInCU: 0xA632, offset: 0xA632, size: 0x8, addend: 0x0, symName: __ZNSt3__128__exception_guard_exceptionsINS_6vectorINS_10shared_ptrI6ObjectEENS_9allocatorIS4_EEE16__destroy_vectorEEC1B7v160006ES8_, symObjAddr: 0x1D40, symBinAddr: 0x100003DD0, symSize: 0x34 }
  - { offsetInCU: 0xA668, offset: 0xA668, size: 0x8, addend: 0x0, symName: __ZNSt3__128__exception_guard_exceptionsINS_6vectorINS_10shared_ptrI6ObjectEENS_9allocatorIS4_EEE16__destroy_vectorEEC2B7v160006ES8_, symObjAddr: 0x1D74, symBinAddr: 0x100003E04, symSize: 0x24 }
  - { offsetInCU: 0xA69E, offset: 0xA69E, size: 0x8, addend: 0x0, symName: __ZNSt3__16vectorINS_10shared_ptrI6ObjectEENS_9allocatorIS3_EEE16__destroy_vectorC2ERS6_, symObjAddr: 0x1D98, symBinAddr: 0x100003E28, symSize: 0x20 }
  - { offsetInCU: 0xA6D5, offset: 0xA6D5, size: 0x8, addend: 0x0, symName: __ZNKSt3__16vectorINS_10shared_ptrI6ObjectEENS_9allocatorIS3_EEE8max_sizeEv, symObjAddr: 0x1DB8, symBinAddr: 0x100003E48, symSize: 0x74 }
  - { offsetInCU: 0xA6FB, offset: 0xA6FB, size: 0x8, addend: 0x0, symName: __ZNKSt3__16vectorINS_10shared_ptrI6ObjectEENS_9allocatorIS3_EEE20__throw_length_errorB7v160006Ev, symObjAddr: 0x1E2C, symBinAddr: 0x100003EBC, symSize: 0x1C }
  - { offsetInCU: 0xA71F, offset: 0xA71F, size: 0x8, addend: 0x0, symName: __ZNSt3__16vectorINS_10shared_ptrI6ObjectEENS_9allocatorIS3_EEE7__allocB7v160006Ev, symObjAddr: 0x1E88, symBinAddr: 0x100003F18, symSize: 0x28 }
  - { offsetInCU: 0xA743, offset: 0xA743, size: 0x8, addend: 0x0, symName: __ZNSt3__16vectorINS_10shared_ptrI6ObjectEENS_9allocatorIS3_EEE9__end_capB7v160006Ev, symObjAddr: 0x1EB0, symBinAddr: 0x100003F40, symSize: 0x28 }
  - { offsetInCU: 0xA767, offset: 0xA767, size: 0x8, addend: 0x0, symName: __ZNKSt3__16vectorINS_10shared_ptrI6ObjectEENS_9allocatorIS3_EEE14__annotate_newB7v160006Em, symObjAddr: 0x1ED8, symBinAddr: 0x100003F68, symSize: 0xAC }
  - { offsetInCU: 0xA79A, offset: 0xA79A, size: 0x8, addend: 0x0, symName: __ZNSt3__116allocator_traitsINS_9allocatorINS_10shared_ptrI6ObjectEEEEE8max_sizeB7v160006IS5_vEEmRKS5_, symObjAddr: 0x1F84, symBinAddr: 0x100004014, symSize: 0x24 }
  - { offsetInCU: 0xA7C7, offset: 0xA7C7, size: 0x8, addend: 0x0, symName: __ZNKSt3__19allocatorINS_10shared_ptrI6ObjectEEE8max_sizeB7v160006Ev, symObjAddr: 0x1FA8, symBinAddr: 0x100004038, symSize: 0x14 }
  - { offsetInCU: 0xA7EB, offset: 0xA7EB, size: 0x8, addend: 0x0, symName: __ZNSt3__19allocatorINS_10shared_ptrI6ObjectEEE8allocateB7v160006Em, symObjAddr: 0x1FBC, symBinAddr: 0x10000404C, symSize: 0x84 }
  - { offsetInCU: 0xA81D, offset: 0xA81D, size: 0x8, addend: 0x0, symName: __ZNSt3__117__compressed_pairIPNS_10shared_ptrI6ObjectEENS_9allocatorIS3_EEE6secondB7v160006Ev, symObjAddr: 0x2040, symBinAddr: 0x1000040D0, symSize: 0x24 }
  - { offsetInCU: 0xA841, offset: 0xA841, size: 0x8, addend: 0x0, symName: __ZNSt3__122__compressed_pair_elemINS_9allocatorINS_10shared_ptrI6ObjectEEEELi1ELb1EE5__getB7v160006Ev, symObjAddr: 0x2064, symBinAddr: 0x1000040F4, symSize: 0x14 }
  - { offsetInCU: 0xA865, offset: 0xA865, size: 0x8, addend: 0x0, symName: __ZNSt3__117__compressed_pairIPNS_10shared_ptrI6ObjectEENS_9allocatorIS3_EEE5firstB7v160006Ev, symObjAddr: 0x2078, symBinAddr: 0x100004108, symSize: 0x24 }
  - { offsetInCU: 0xA889, offset: 0xA889, size: 0x8, addend: 0x0, symName: __ZNSt3__122__compressed_pair_elemIPNS_10shared_ptrI6ObjectEELi0ELb0EE5__getB7v160006Ev, symObjAddr: 0x209C, symBinAddr: 0x10000412C, symSize: 0x14 }
  - { offsetInCU: 0xA8AD, offset: 0xA8AD, size: 0x8, addend: 0x0, symName: __ZNKSt3__16vectorINS_10shared_ptrI6ObjectEENS_9allocatorIS3_EEE31__annotate_contiguous_containerB7v160006EPKvS8_S8_S8_, symObjAddr: 0x20B0, symBinAddr: 0x100004140, symSize: 0x20 }
  - { offsetInCU: 0xA8FD, offset: 0xA8FD, size: 0x8, addend: 0x0, symName: __ZNKSt3__16vectorINS_10shared_ptrI6ObjectEENS_9allocatorIS3_EEE4dataB7v160006Ev, symObjAddr: 0x20D0, symBinAddr: 0x100004160, symSize: 0x28 }
  - { offsetInCU: 0xA921, offset: 0xA921, size: 0x8, addend: 0x0, symName: __ZNKSt3__16vectorINS_10shared_ptrI6ObjectEENS_9allocatorIS3_EEE8capacityB7v160006Ev, symObjAddr: 0x20F8, symBinAddr: 0x100004188, symSize: 0x40 }
  - { offsetInCU: 0xA945, offset: 0xA945, size: 0x8, addend: 0x0, symName: __ZNKSt3__16vectorINS_10shared_ptrI6ObjectEENS_9allocatorIS3_EEE9__end_capB7v160006Ev, symObjAddr: 0x214C, symBinAddr: 0x1000041DC, symSize: 0x28 }
  - { offsetInCU: 0xA969, offset: 0xA969, size: 0x8, addend: 0x0, symName: __ZNKSt3__117__compressed_pairIPNS_10shared_ptrI6ObjectEENS_9allocatorIS3_EEE5firstB7v160006Ev, symObjAddr: 0x2174, symBinAddr: 0x100004204, symSize: 0x24 }
  - { offsetInCU: 0xA98D, offset: 0xA98D, size: 0x8, addend: 0x0, symName: __ZNKSt3__122__compressed_pair_elemIPNS_10shared_ptrI6ObjectEELi0ELb0EE5__getB7v160006Ev, symObjAddr: 0x2198, symBinAddr: 0x100004228, symSize: 0x14 }
  - { offsetInCU: 0xA9CA, offset: 0xA9CA, size: 0x8, addend: 0x0, symName: __ZNSt3__16vectorINS_10shared_ptrI6ObjectEENS_9allocatorIS3_EEE21_ConstructTransactionC1B7v160006ERS6_m, symObjAddr: 0x21AC, symBinAddr: 0x10000423C, symSize: 0x3C }
  - { offsetInCU: 0xAA10, offset: 0xAA10, size: 0x8, addend: 0x0, symName: __ZNSt3__16vectorINS_10shared_ptrI6ObjectEENS_9allocatorIS3_EEE21_ConstructTransactionD1B7v160006Ev, symObjAddr: 0x22E4, symBinAddr: 0x100004374, symSize: 0x2C }
  - { offsetInCU: 0xAA38, offset: 0xAA38, size: 0x8, addend: 0x0, symName: __ZNSt3__16vectorINS_10shared_ptrI6ObjectEENS_9allocatorIS3_EEE21_ConstructTransactionC2B7v160006ERS6_m, symObjAddr: 0x2310, symBinAddr: 0x1000043A0, symSize: 0x44 }
  - { offsetInCU: 0xAA7E, offset: 0xAA7E, size: 0x8, addend: 0x0, symName: __ZNSt3__129_AllocatorDestroyRangeReverseINS_9allocatorINS_10shared_ptrI6ObjectEEEEPS4_EC1B7v160006ERS5_RS6_S9_, symObjAddr: 0x23A0, symBinAddr: 0x100004430, symSize: 0x44 }
  - { offsetInCU: 0xAAD3, offset: 0xAAD3, size: 0x8, addend: 0x0, symName: __ZNSt3__116allocator_traitsINS_9allocatorINS_10shared_ptrI6ObjectEEEEE9constructB7v160006IS4_JRS4_EvEEvRS5_PT_DpOT0_, symObjAddr: 0x23E4, symBinAddr: 0x100004474, symSize: 0x34 }
  - { offsetInCU: 0xAB29, offset: 0xAB29, size: 0x8, addend: 0x0, symName: __ZNSt3__128__exception_guard_exceptionsINS_29_AllocatorDestroyRangeReverseINS_9allocatorINS_10shared_ptrI6ObjectEEEEPS5_EEE10__completeB7v160006Ev, symObjAddr: 0x2418, symBinAddr: 0x1000044A8, symSize: 0x1C }
  - { offsetInCU: 0xAB4D, offset: 0xAB4D, size: 0x8, addend: 0x0, symName: __ZNSt3__128__exception_guard_exceptionsINS_29_AllocatorDestroyRangeReverseINS_9allocatorINS_10shared_ptrI6ObjectEEEEPS5_EEED1B7v160006Ev, symObjAddr: 0x2434, symBinAddr: 0x1000044C4, symSize: 0x2C }
  - { offsetInCU: 0xAB75, offset: 0xAB75, size: 0x8, addend: 0x0, symName: __ZNSt3__128__exception_guard_exceptionsINS_29_AllocatorDestroyRangeReverseINS_9allocatorINS_10shared_ptrI6ObjectEEEEPS5_EEEC1B7v160006ES8_, symObjAddr: 0x2460, symBinAddr: 0x1000044F0, symSize: 0x34 }
  - { offsetInCU: 0xABAC, offset: 0xABAC, size: 0x8, addend: 0x0, symName: __ZNSt3__128__exception_guard_exceptionsINS_29_AllocatorDestroyRangeReverseINS_9allocatorINS_10shared_ptrI6ObjectEEEEPS5_EEEC2B7v160006ES8_, symObjAddr: 0x2494, symBinAddr: 0x100004524, symSize: 0x30 }
  - { offsetInCU: 0xABE3, offset: 0xABE3, size: 0x8, addend: 0x0, symName: __ZNSt3__129_AllocatorDestroyRangeReverseINS_9allocatorINS_10shared_ptrI6ObjectEEEEPS4_EC2B7v160006ERS5_RS6_S9_, symObjAddr: 0x24C4, symBinAddr: 0x100004554, symSize: 0x38 }
  - { offsetInCU: 0xAC38, offset: 0xAC38, size: 0x8, addend: 0x0, symName: __ZNSt3__19allocatorINS_10shared_ptrI6ObjectEEE9constructB7v160006IS3_JRS3_EEEvPT_DpOT0_, symObjAddr: 0x24FC, symBinAddr: 0x10000458C, symSize: 0x30 }
  - { offsetInCU: 0xAC8C, offset: 0xAC8C, size: 0x8, addend: 0x0, symName: __ZNSt3__110shared_ptrI6ObjectEC1B7v160006ERKS2_, symObjAddr: 0x252C, symBinAddr: 0x1000045BC, symSize: 0x34 }
  - { offsetInCU: 0xACC3, offset: 0xACC3, size: 0x8, addend: 0x0, symName: __ZNSt3__110shared_ptrI6ObjectEC2B7v160006ERKS2_, symObjAddr: 0x2560, symBinAddr: 0x1000045F0, symSize: 0x70 }
  - { offsetInCU: 0xACFA, offset: 0xACFA, size: 0x8, addend: 0x0, symName: __ZNSt3__119__shared_weak_count12__add_sharedB7v160006Ev, symObjAddr: 0x25D0, symBinAddr: 0x100004660, symSize: 0x24 }
  - { offsetInCU: 0xAD1E, offset: 0xAD1E, size: 0x8, addend: 0x0, symName: __ZNSt3__114__shared_count12__add_sharedB7v160006Ev, symObjAddr: 0x25F4, symBinAddr: 0x100004684, symSize: 0x28 }
  - { offsetInCU: 0xAD42, offset: 0xAD42, size: 0x8, addend: 0x0, symName: __ZNSt3__128__exception_guard_exceptionsINS_29_AllocatorDestroyRangeReverseINS_9allocatorINS_10shared_ptrI6ObjectEEEEPS5_EEED2B7v160006Ev, symObjAddr: 0x264C, symBinAddr: 0x1000046DC, symSize: 0x48 }
  - { offsetInCU: 0xAD6A, offset: 0xAD6A, size: 0x8, addend: 0x0, symName: __ZNKSt3__129_AllocatorDestroyRangeReverseINS_9allocatorINS_10shared_ptrI6ObjectEEEEPS4_EclB7v160006Ev, symObjAddr: 0x2694, symBinAddr: 0x100004724, symSize: 0x68 }
  - { offsetInCU: 0xAD8E, offset: 0xAD8E, size: 0x8, addend: 0x0, symName: __ZNSt3__116reverse_iteratorIPNS_10shared_ptrI6ObjectEEEC1B7v160006ES4_, symObjAddr: 0x276C, symBinAddr: 0x1000047FC, symSize: 0x34 }
  - { offsetInCU: 0xADC4, offset: 0xADC4, size: 0x8, addend: 0x0, symName: __ZNSt3__116allocator_traitsINS_9allocatorINS_10shared_ptrI6ObjectEEEEE7destroyB7v160006IS4_vEEvRS5_PT_, symObjAddr: 0x27E8, symBinAddr: 0x100004878, symSize: 0x2C }
  - { offsetInCU: 0xAE00, offset: 0xAE00, size: 0x8, addend: 0x0, symName: __ZNSt3__116reverse_iteratorIPNS_10shared_ptrI6ObjectEEEppB7v160006Ev, symObjAddr: 0x2838, symBinAddr: 0x1000048C8, symSize: 0x20 }
  - { offsetInCU: 0xAE24, offset: 0xAE24, size: 0x8, addend: 0x0, symName: __ZNKSt3__116reverse_iteratorIPNS_10shared_ptrI6ObjectEEE4baseB7v160006Ev, symObjAddr: 0x2858, symBinAddr: 0x1000048E8, symSize: 0x18 }
  - { offsetInCU: 0xAE48, offset: 0xAE48, size: 0x8, addend: 0x0, symName: __ZNSt3__19allocatorINS_10shared_ptrI6ObjectEEE7destroyB7v160006EPS3_, symObjAddr: 0x2870, symBinAddr: 0x100004900, symSize: 0x28 }
  - { offsetInCU: 0xAE7A, offset: 0xAE7A, size: 0x8, addend: 0x0, symName: __ZNSt3__110shared_ptrI6ObjectED1B7v160006Ev, symObjAddr: 0x2898, symBinAddr: 0x100004928, symSize: 0x2C }
  - { offsetInCU: 0xAEA2, offset: 0xAEA2, size: 0x8, addend: 0x0, symName: __ZNSt3__110shared_ptrI6ObjectED2B7v160006Ev, symObjAddr: 0x28C4, symBinAddr: 0x100004954, symSize: 0x54 }
  - { offsetInCU: 0xAECA, offset: 0xAECA, size: 0x8, addend: 0x0, symName: __ZNSt3__119__shared_weak_count16__release_sharedB7v160006Ev, symObjAddr: 0x2918, symBinAddr: 0x1000049A8, symSize: 0x3C }
  - { offsetInCU: 0xAEEE, offset: 0xAEEE, size: 0x8, addend: 0x0, symName: __ZNSt3__114__shared_count16__release_sharedB7v160006Ev, symObjAddr: 0x2954, symBinAddr: 0x1000049E4, symSize: 0x7C }
  - { offsetInCU: 0xAF17, offset: 0xAF17, size: 0x8, addend: 0x0, symName: __ZNSt3__119__to_address_helperINS_16reverse_iteratorIPNS_10shared_ptrI6ObjectEEEEvE6__callB7v160006ERKS6_, symObjAddr: 0x2A00, symBinAddr: 0x100004A90, symSize: 0x4C }
  - { offsetInCU: 0xAF39, offset: 0xAF39, size: 0x8, addend: 0x0, symName: __ZNKSt3__116reverse_iteratorIPNS_10shared_ptrI6ObjectEEEptB7v160006Ev, symObjAddr: 0x2A4C, symBinAddr: 0x100004ADC, symSize: 0x24 }
  - { offsetInCU: 0xAF5D, offset: 0xAF5D, size: 0x8, addend: 0x0, symName: __ZNKSt3__116reverse_iteratorIPNS_10shared_ptrI6ObjectEEEdeB7v160006Ev, symObjAddr: 0x2A70, symBinAddr: 0x100004B00, symSize: 0x28 }
  - { offsetInCU: 0xAF8F, offset: 0xAF8F, size: 0x8, addend: 0x0, symName: __ZNSt3__116reverse_iteratorIPNS_10shared_ptrI6ObjectEEEC2B7v160006ES4_, symObjAddr: 0x2A98, symBinAddr: 0x100004B28, symSize: 0x28 }
  - { offsetInCU: 0xAFC5, offset: 0xAFC5, size: 0x8, addend: 0x0, symName: __ZNSt3__16vectorINS_10shared_ptrI6ObjectEENS_9allocatorIS3_EEE21_ConstructTransactionD2B7v160006Ev, symObjAddr: 0x2AC0, symBinAddr: 0x100004B50, symSize: 0x20 }
  - { offsetInCU: 0xAFED, offset: 0xAFED, size: 0x8, addend: 0x0, symName: __ZNSt3__128__exception_guard_exceptionsINS_6vectorINS_10shared_ptrI6ObjectEENS_9allocatorIS4_EEE16__destroy_vectorEED2B7v160006Ev, symObjAddr: 0x2AE0, symBinAddr: 0x100004B70, symSize: 0x48 }
  - { offsetInCU: 0xB015, offset: 0xB015, size: 0x8, addend: 0x0, symName: __ZNSt3__16vectorINS_10shared_ptrI6ObjectEENS_9allocatorIS3_EEE16__destroy_vectorclB7v160006Ev, symObjAddr: 0x2B28, symBinAddr: 0x100004BB8, symSize: 0x9C }
  - { offsetInCU: 0xB039, offset: 0xB039, size: 0x8, addend: 0x0, symName: __ZNKSt3__16vectorINS_10shared_ptrI6ObjectEENS_9allocatorIS3_EEE17__annotate_deleteB7v160006Ev, symObjAddr: 0x2BC4, symBinAddr: 0x100004C54, symSize: 0xB8 }
  - { offsetInCU: 0xB05D, offset: 0xB05D, size: 0x8, addend: 0x0, symName: __ZNSt3__16vectorINS_10shared_ptrI6ObjectEENS_9allocatorIS3_EEE7__clearB7v160006Ev, symObjAddr: 0x2C8C, symBinAddr: 0x100004D1C, symSize: 0x28 }
  - { offsetInCU: 0xB081, offset: 0xB081, size: 0x8, addend: 0x0, symName: __ZNSt3__116allocator_traitsINS_9allocatorINS_10shared_ptrI6ObjectEEEEE10deallocateB7v160006ERS5_PS4_m, symObjAddr: 0x2CB4, symBinAddr: 0x100004D44, symSize: 0x34 }
  - { offsetInCU: 0xB0C2, offset: 0xB0C2, size: 0x8, addend: 0x0, symName: __ZNSt3__16vectorINS_10shared_ptrI6ObjectEENS_9allocatorIS3_EEE22__base_destruct_at_endB7v160006EPS3_, symObjAddr: 0x2CE8, symBinAddr: 0x100004D78, symSize: 0xA0 }
  - { offsetInCU: 0xB104, offset: 0xB104, size: 0x8, addend: 0x0, symName: __ZNSt3__19allocatorINS_10shared_ptrI6ObjectEEE10deallocateB7v160006EPS3_m, symObjAddr: 0x2D88, symBinAddr: 0x100004E18, symSize: 0x70 }
  - { offsetInCU: 0xB144, offset: 0xB144, size: 0x8, addend: 0x0, symName: __ZNSt3__16vectorI5LightNS_9allocatorIS1_EEED2B7v160006Ev, symObjAddr: 0x2DF8, symBinAddr: 0x100004E88, symSize: 0x3C }
  - { offsetInCU: 0xB16C, offset: 0xB16C, size: 0x8, addend: 0x0, symName: __ZN5SceneD2Ev, symObjAddr: 0x2E34, symBinAddr: 0x100004EC4, symSize: 0x68 }
  - { offsetInCU: 0xB196, offset: 0xB196, size: 0x8, addend: 0x0, symName: __ZNSt3__16vectorINS_10shared_ptrI6ObjectEENS_9allocatorIS3_EEED1B7v160006Ev, symObjAddr: 0x2E9C, symBinAddr: 0x100004F2C, symSize: 0x2C }
  - { offsetInCU: 0xB1BE, offset: 0xB1BE, size: 0x8, addend: 0x0, symName: __ZNSt3__16vectorINS_10shared_ptrI6ObjectEENS_9allocatorIS3_EEED2B7v160006Ev, symObjAddr: 0x2EC8, symBinAddr: 0x100004F58, symSize: 0x3C }
  - { offsetInCU: 0x3071, offset: 0xE405, size: 0x8, addend: 0x0, symName: __ZNSt3__124__put_character_sequenceB7v160006IcNS_11char_traitsIcEEEERNS_13basic_ostreamIT_T0_EES7_PKS4_m, symObjAddr: 0x7F8, symBinAddr: 0x10000578C, symSize: 0x1F4 }
  - { offsetInCU: 0x5C64, offset: 0x10FF8, size: 0x8, addend: 0x0, symName: __ZNSt3__1lsB7v160006INS_11char_traitsIcEEEERNS_13basic_ostreamIcT_EES6_PKc, symObjAddr: 0x2F0, symBinAddr: 0x100005284, symSize: 0x48 }
  - { offsetInCU: 0x5CAA, offset: 0x1103E, size: 0x8, addend: 0x0, symName: __ZNSt3__14endlB7v160006IcNS_11char_traitsIcEEEERNS_13basic_ostreamIT_T0_EES7_, symObjAddr: 0x364, symBinAddr: 0x1000052F8, symSize: 0x58 }
  - { offsetInCU: 0x5CEA, offset: 0x1107E, size: 0x8, addend: 0x0, symName: __ZNSt3__116__pad_and_outputB7v160006IcNS_11char_traitsIcEEEENS_19ostreambuf_iteratorIT_T0_EES6_PKS4_S8_S8_RNS_8ios_baseES4_, symObjAddr: 0xA50, symBinAddr: 0x1000059E4, symSize: 0x248 }
  - { offsetInCU: 0x5DB9, offset: 0x1114D, size: 0x8, addend: 0x0, symName: __ZNSt3__119__debug_db_insert_cB7v160006INS_12basic_stringIcNS_11char_traitsIcEENS_9allocatorIcEEEEEEvPT_, symObjAddr: 0xF18, symBinAddr: 0x100005EA0, symSize: 0x10 }
  - { offsetInCU: 0x5DEA, offset: 0x1117E, size: 0x8, addend: 0x0, symName: __ZNSt3__112__to_addressB7v160006IKcEEPT_S3_, symObjAddr: 0xFE4, symBinAddr: 0x100005F6C, symSize: 0x14 }
  - { offsetInCU: 0x5E52, offset: 0x111E6, size: 0x8, addend: 0x0, symName: __ZNSt3__19use_facetB7v160006INS_5ctypeIcEEEERKT_RKNS_6localeE, symObjAddr: 0x12C8, symBinAddr: 0x100006244, symSize: 0x2C }
  - { offsetInCU: 0x632A, offset: 0x116BE, size: 0x8, addend: 0x0, symName: __ZNSt3__118__constexpr_strlenB7v160006EPKc, symObjAddr: 0x1360, symBinAddr: 0x1000062DC, symSize: 0x24 }
  - { offsetInCU: 0x8673, offset: 0x13A07, size: 0x8, addend: 0x0, symName: __ZN8RendererC2Eii, symObjAddr: 0x0, symBinAddr: 0x100004F94, symSize: 0x1A0 }
  - { offsetInCU: 0x86B9, offset: 0x13A4D, size: 0x8, addend: 0x0, symName: __ZN8RendererC1Eii, symObjAddr: 0x1A0, symBinAddr: 0x100005134, symSize: 0x3C }
  - { offsetInCU: 0x86FF, offset: 0x13A93, size: 0x8, addend: 0x0, symName: __ZN8Renderer20sendPixelsToRendererEPh, symObjAddr: 0x1DC, symBinAddr: 0x100005170, symSize: 0xA4 }
  - { offsetInCU: 0x8750, offset: 0x13AE4, size: 0x8, addend: 0x0, symName: __ZN8Renderer6renderEv, symObjAddr: 0x280, symBinAddr: 0x100005214, symSize: 0x70 }
  - { offsetInCU: 0x8777, offset: 0x13B0B, size: 0x8, addend: 0x0, symName: __ZNSt3__113basic_ostreamIcNS_11char_traitsIcEEElsB7v160006EPFRS3_S4_E, symObjAddr: 0x338, symBinAddr: 0x1000052CC, symSize: 0x2C }
  - { offsetInCU: 0x87A9, offset: 0x13B3D, size: 0x8, addend: 0x0, symName: __ZN8Renderer8keepOpenE5Scene, symObjAddr: 0x3BC, symBinAddr: 0x100005350, symSize: 0x348 }
  - { offsetInCU: 0x88B3, offset: 0x13C47, size: 0x8, addend: 0x0, symName: __ZN7Vector3C1Efff, symObjAddr: 0x704, symBinAddr: 0x100005698, symSize: 0x44 }
  - { offsetInCU: 0x8905, offset: 0x13C99, size: 0x8, addend: 0x0, symName: __ZN8RendererD2Ev, symObjAddr: 0x748, symBinAddr: 0x1000056DC, symSize: 0x4C }
  - { offsetInCU: 0x892F, offset: 0x13CC3, size: 0x8, addend: 0x0, symName: __ZN8RendererD1Ev, symObjAddr: 0x794, symBinAddr: 0x100005728, symSize: 0x2C }
  - { offsetInCU: 0x8959, offset: 0x13CED, size: 0x8, addend: 0x0, symName: __ZN7Vector3C2Efff, symObjAddr: 0x7C0, symBinAddr: 0x100005754, symSize: 0x38 }
  - { offsetInCU: 0x89AB, offset: 0x13D3F, size: 0x8, addend: 0x0, symName: __ZNSt3__111char_traitsIcE6lengthEPKc, symObjAddr: 0x9EC, symBinAddr: 0x100005980, symSize: 0x48 }
  - { offsetInCU: 0x89E6, offset: 0x13D7A, size: 0x8, addend: 0x0, symName: __ZNKSt3__113basic_ostreamIcNS_11char_traitsIcEEE6sentrycvbB7v160006Ev, symObjAddr: 0xA34, symBinAddr: 0x1000059C8, symSize: 0x1C }
  - { offsetInCU: 0x8A0A, offset: 0x13D9E, size: 0x8, addend: 0x0, symName: __ZNSt3__119ostreambuf_iteratorIcNS_11char_traitsIcEEEC1B7v160006ERNS_13basic_ostreamIcS2_EE, symObjAddr: 0xC98, symBinAddr: 0x100005C2C, symSize: 0x34 }
  - { offsetInCU: 0x8A40, offset: 0x13DD4, size: 0x8, addend: 0x0, symName: __ZNKSt3__18ios_base5flagsB7v160006Ev, symObjAddr: 0xCCC, symBinAddr: 0x100005C60, symSize: 0x18 }
  - { offsetInCU: 0x8A66, offset: 0x13DFA, size: 0x8, addend: 0x0, symName: __ZNKSt3__19basic_iosIcNS_11char_traitsIcEEE4fillB7v160006Ev, symObjAddr: 0xCE4, symBinAddr: 0x100005C78, symSize: 0x64 }
  - { offsetInCU: 0x8A8C, offset: 0x13E20, size: 0x8, addend: 0x0, symName: __ZNKSt3__119ostreambuf_iteratorIcNS_11char_traitsIcEEE6failedB7v160006Ev, symObjAddr: 0xD48, symBinAddr: 0x100005CDC, symSize: 0x24 }
  - { offsetInCU: 0x8AB0, offset: 0x13E44, size: 0x8, addend: 0x0, symName: __ZNSt3__19basic_iosIcNS_11char_traitsIcEEE8setstateB7v160006Ej, symObjAddr: 0xD6C, symBinAddr: 0x100005D00, symSize: 0x2C }
  - { offsetInCU: 0x8AE3, offset: 0x13E77, size: 0x8, addend: 0x0, symName: __ZNKSt3__18ios_base5widthB7v160006Ev, symObjAddr: 0xDA4, symBinAddr: 0x100005D2C, symSize: 0x18 }
  - { offsetInCU: 0x8B09, offset: 0x13E9D, size: 0x8, addend: 0x0, symName: __ZNSt3__115basic_streambufIcNS_11char_traitsIcEEE5sputnB7v160006EPKcl, symObjAddr: 0xDBC, symBinAddr: 0x100005D44, symSize: 0x3C }
  - { offsetInCU: 0x8B49, offset: 0x13EDD, size: 0x8, addend: 0x0, symName: __ZNSt3__112basic_stringIcNS_11char_traitsIcEENS_9allocatorIcEEEC1B7v160006Emc, symObjAddr: 0xDF8, symBinAddr: 0x100005D80, symSize: 0x3C }
  - { offsetInCU: 0x8B8F, offset: 0x13F23, size: 0x8, addend: 0x0, symName: __ZNKSt3__112basic_stringIcNS_11char_traitsIcEENS_9allocatorIcEEE4dataB7v160006Ev, symObjAddr: 0xE34, symBinAddr: 0x100005DBC, symSize: 0x28 }
  - { offsetInCU: 0x8BB3, offset: 0x13F47, size: 0x8, addend: 0x0, symName: __ZNSt3__18ios_base5widthB7v160006El, symObjAddr: 0xE5C, symBinAddr: 0x100005DE4, symSize: 0x2C }
  - { offsetInCU: 0x8BF7, offset: 0x13F8B, size: 0x8, addend: 0x0, symName: __ZNSt3__112basic_stringIcNS_11char_traitsIcEENS_9allocatorIcEEEC2B7v160006Emc, symObjAddr: 0xE88, symBinAddr: 0x100005E10, symSize: 0x54 }
  - { offsetInCU: 0x8C42, offset: 0x13FD6, size: 0x8, addend: 0x0, symName: __ZNSt3__117__compressed_pairINS_12basic_stringIcNS_11char_traitsIcEENS_9allocatorIcEEE5__repES5_EC1B7v160006INS_18__default_init_tagESA_EEOT_OT0_, symObjAddr: 0xEDC, symBinAddr: 0x100005E64, symSize: 0x3C }
  - { offsetInCU: 0x8C98, offset: 0x1402C, size: 0x8, addend: 0x0, symName: __ZNSt3__117__compressed_pairINS_12basic_stringIcNS_11char_traitsIcEENS_9allocatorIcEEE5__repES5_EC2B7v160006INS_18__default_init_tagESA_EEOT_OT0_, symObjAddr: 0xF28, symBinAddr: 0x100005EB0, symSize: 0x3C }
  - { offsetInCU: 0x8CEE, offset: 0x14082, size: 0x8, addend: 0x0, symName: __ZNSt3__122__compressed_pair_elemINS_12basic_stringIcNS_11char_traitsIcEENS_9allocatorIcEEE5__repELi0ELb0EEC2B7v160006ENS_18__default_init_tagE, symObjAddr: 0xF64, symBinAddr: 0x100005EEC, symSize: 0x14 }
  - { offsetInCU: 0x8D21, offset: 0x140B5, size: 0x8, addend: 0x0, symName: __ZNSt3__122__compressed_pair_elemINS_9allocatorIcEELi1ELb1EEC2B7v160006ENS_18__default_init_tagE, symObjAddr: 0xF78, symBinAddr: 0x100005F00, symSize: 0x2C }
  - { offsetInCU: 0x8D54, offset: 0x140E8, size: 0x8, addend: 0x0, symName: __ZNSt3__19allocatorIcEC2B7v160006Ev, symObjAddr: 0xFA4, symBinAddr: 0x100005F2C, symSize: 0x2C }
  - { offsetInCU: 0x8D7C, offset: 0x14110, size: 0x8, addend: 0x0, symName: __ZNSt3__116__non_trivial_ifILb1ENS_9allocatorIcEEEC2B7v160006Ev, symObjAddr: 0xFD0, symBinAddr: 0x100005F58, symSize: 0x14 }
  - { offsetInCU: 0x8DA4, offset: 0x14138, size: 0x8, addend: 0x0, symName: __ZNKSt3__112basic_stringIcNS_11char_traitsIcEENS_9allocatorIcEEE13__get_pointerB7v160006Ev, symObjAddr: 0xFF8, symBinAddr: 0x100005F80, symSize: 0x54 }
  - { offsetInCU: 0x8DC8, offset: 0x1415C, size: 0x8, addend: 0x0, symName: __ZNKSt3__112basic_stringIcNS_11char_traitsIcEENS_9allocatorIcEEE9__is_longB7v160006Ev, symObjAddr: 0x104C, symBinAddr: 0x100005FD4, symSize: 0x74 }
  - { offsetInCU: 0x8DEC, offset: 0x14180, size: 0x8, addend: 0x0, symName: __ZNKSt3__112basic_stringIcNS_11char_traitsIcEENS_9allocatorIcEEE18__get_long_pointerB7v160006Ev, symObjAddr: 0x10C0, symBinAddr: 0x100006048, symSize: 0x28 }
  - { offsetInCU: 0x8E10, offset: 0x141A4, size: 0x8, addend: 0x0, symName: __ZNKSt3__112basic_stringIcNS_11char_traitsIcEENS_9allocatorIcEEE19__get_short_pointerB7v160006Ev, symObjAddr: 0x10E8, symBinAddr: 0x100006070, symSize: 0x28 }
  - { offsetInCU: 0x8E34, offset: 0x141C8, size: 0x8, addend: 0x0, symName: __ZNKSt3__117__compressed_pairINS_12basic_stringIcNS_11char_traitsIcEENS_9allocatorIcEEE5__repES5_E5firstB7v160006Ev, symObjAddr: 0x111C, symBinAddr: 0x100006098, symSize: 0x24 }
  - { offsetInCU: 0x8E58, offset: 0x141EC, size: 0x8, addend: 0x0, symName: __ZNKSt3__122__compressed_pair_elemINS_12basic_stringIcNS_11char_traitsIcEENS_9allocatorIcEEE5__repELi0ELb0EE5__getB7v160006Ev, symObjAddr: 0x1140, symBinAddr: 0x1000060BC, symSize: 0x14 }
  - { offsetInCU: 0x8E7C, offset: 0x14210, size: 0x8, addend: 0x0, symName: __ZNSt3__114pointer_traitsIPKcE10pointer_toB7v160006ERS1_, symObjAddr: 0x1154, symBinAddr: 0x1000060D0, symSize: 0x14 }
  - { offsetInCU: 0x8E9E, offset: 0x14232, size: 0x8, addend: 0x0, symName: __ZNSt3__119ostreambuf_iteratorIcNS_11char_traitsIcEEEC2B7v160006ERNS_13basic_ostreamIcS2_EE, symObjAddr: 0x1168, symBinAddr: 0x1000060E4, symSize: 0x68 }
  - { offsetInCU: 0x8ED4, offset: 0x14268, size: 0x8, addend: 0x0, symName: __ZNKSt3__19basic_iosIcNS_11char_traitsIcEEE5rdbufB7v160006Ev, symObjAddr: 0x11D0, symBinAddr: 0x10000614C, symSize: 0x24 }
  - { offsetInCU: 0x8EFA, offset: 0x1428E, size: 0x8, addend: 0x0, symName: __ZNKSt3__18ios_base5rdbufB7v160006Ev, symObjAddr: 0x11F4, symBinAddr: 0x100006170, symSize: 0x18 }
  - { offsetInCU: 0x8F1E, offset: 0x142B2, size: 0x8, addend: 0x0, symName: __ZNSt3__111char_traitsIcE11eq_int_typeEii, symObjAddr: 0x120C, symBinAddr: 0x100006188, symSize: 0x28 }
  - { offsetInCU: 0x8F4E, offset: 0x142E2, size: 0x8, addend: 0x0, symName: __ZNSt3__111char_traitsIcE3eofEv, symObjAddr: 0x1234, symBinAddr: 0x1000061B0, symSize: 0x8 }
  - { offsetInCU: 0x8F61, offset: 0x142F5, size: 0x8, addend: 0x0, symName: __ZNKSt3__19basic_iosIcNS_11char_traitsIcEEE5widenB7v160006Ec, symObjAddr: 0x123C, symBinAddr: 0x1000061B8, symSize: 0x8C }
  - { offsetInCU: 0x8FCD, offset: 0x14361, size: 0x8, addend: 0x0, symName: __ZNKSt3__15ctypeIcE5widenB7v160006Ec, symObjAddr: 0x12F4, symBinAddr: 0x100006270, symSize: 0x38 }
  - { offsetInCU: 0x9000, offset: 0x14394, size: 0x8, addend: 0x0, symName: __ZNSt3__18ios_base8setstateB7v160006Ej, symObjAddr: 0x132C, symBinAddr: 0x1000062A8, symSize: 0x34 }
...
